; Function Attrs: mustprogress nounwind uwtable
define noundef zeroext i1 @_ZN5boost6fibers11timed_mutex15try_lock_until_ERKNSt6chrono10time_pointINS2_3_V212steady_clockENS2_8durationIlSt5ratioILl1ELl1000000000EEEEEE(ptr noundef nonnull align 8 dereferenceable(32) %0, ptr noundef nonnull align 8 dereferenceable(8) %1) local_unnamed_addr #3 align 2 personality ptr @__gxx_personality_v0 {
  %3 = alloca %"class.std::unique_lock", align 8
  %4 = getelementptr inbounds nuw i8, ptr %3, i64 8
  %5 = getelementptr inbounds nuw i8, ptr %0, i64 24
  %6 = getelementptr inbounds nuw i8, ptr %0, i64 8
  %7 = tail call i64 @_ZNSt6chrono3_V212steady_clock3nowEv() #19
  %.sroa.0.0.copyload.i.i.i26 = load i64, ptr %1, align 8, !tbaa !3
  %8 = icmp slt i64 %.sroa.0.0.copyload.i.i.i26, %7
  br i1 %8, label %.loopexit, label %.lr.ph

.lr.ph:                                           ; preds = %2, %.backedge
  %.0627 = phi i1 [ %.06., %.backedge ], [ undef, %2 ]
  %9 = call noundef ptr @_ZN5boost6fibers7context6activeEv() #19
  call void @llvm.lifetime.start.p0(i64 16, ptr nonnull %3) #19
  store ptr %0, ptr %3, align 8, !tbaa !7
  store i8 0, ptr %4, align 8, !tbaa !11
  call void @_ZN5boost6fibers6detail13spinlock_ttas4lockEv(ptr noundef nonnull align 4 dereferenceable(4) %0) #19
  store i8 1, ptr %4, align 8, !tbaa !11
  %10 = load ptr, ptr %5, align 8, !tbaa !12
  %11 = icmp eq ptr %10, null
  br i1 %11, label %.thread13, label %12

12:                                               ; preds = %.lr.ph
  %13 = invoke noundef zeroext i1 @_ZN5boost6fibers10wait_queue22suspend_and_wait_untilERSt11unique_lockINS0_6detail13spinlock_ttasEEPNS0_7contextERKNSt6chrono10time_pointINS9_3_V212steady_clockENS9_8durationIlSt5ratioILl1ELl1000000000EEEEEE(ptr noundef nonnull align 8 dereferenceable(16) %6, ptr noundef nonnull align 8 dereferenceable(9) %3, ptr noundef %9, ptr noundef nonnull align 8 dereferenceable(8) %1)
          to label %14 unwind label %22

14:                                               ; preds = %12
  %.06. = select i1 %13, i1 %.0627, i1 false
  %.pre = load i8, ptr %4, align 8, !tbaa !11, !range !25
  %15 = trunc nuw i8 %.pre to i1
  br i1 %15, label %16, label %_ZNSt11unique_lockIN5boost6fibers6detail13spinlock_ttasEED2Ev.exit

16:                                               ; preds = %14
  %17 = load ptr, ptr %3, align 8, !tbaa !7
  %.not.i.i = icmp eq ptr %17, null
  br i1 %.not.i.i, label %_ZNSt11unique_lockIN5boost6fibers6detail13spinlock_ttasEED2Ev.exit, label %19

.thread13:                                        ; preds = %.lr.ph
  store ptr %9, ptr %5, align 8, !tbaa !12
  %18 = load ptr, ptr %3, align 8, !tbaa !7
  %.not.i.i16 = icmp eq ptr %18, null
  br i1 %.not.i.i16, label %.loopexit.sink.split, label %.thread19

.thread19:                                        ; preds = %.thread13
  store atomic i32 1, ptr %18 release, align 4
  br label %.loopexit.sink.split

19:                                               ; preds = %16
  store atomic i32 1, ptr %17 release, align 4
  call void @llvm.lifetime.end.p0(i64 16, ptr nonnull %3) #19
  br i1 %13, label %.backedge, label %.loopexit

_ZNSt11unique_lockIN5boost6fibers6detail13spinlock_ttasEED2Ev.exit: ; preds = %14, %16
  call void @llvm.lifetime.end.p0(i64 16, ptr nonnull %3) #19
  br i1 %13, label %.backedge, label %.loopexit

.backedge:                                        ; preds = %_ZNSt11unique_lockIN5boost6fibers6detail13spinlock_ttasEED2Ev.exit, %19
  %20 = call i64 @_ZNSt6chrono3_V212steady_clock3nowEv() #19
  %.sroa.0.0.copyload.i.i.i = load i64, ptr %1, align 8, !tbaa !3
  %21 = icmp slt i64 %.sroa.0.0.copyload.i.i.i, %20
  br i1 %21, label %.loopexit, label %.lr.ph

.loopexit.sink.split:                             ; preds = %.thread13, %.thread19
  call void @llvm.lifetime.end.p0(i64 16, ptr nonnull %3) #19
  br label %.loopexit

.loopexit:                                        ; preds = %.backedge, %_ZNSt11unique_lockIN5boost6fibers6detail13spinlock_ttasEED2Ev.exit, %19, %2, %.loopexit.sink.split
  %.1 = phi i1 [ true, %.loopexit.sink.split ], [ false, %2 ], [ %.06., %19 ], [ %.06., %_ZNSt11unique_lockIN5boost6fibers6detail13spinlock_ttasEED2Ev.exit ], [ false, %.backedge ]
  ret i1 %.1

22:                                               ; preds = %12
  %23 = landingpad { ptr, i32 }
          catch ptr null
  %24 = extractvalue { ptr, i32 } %23, 0
  call void @__clang_call_terminate(ptr %24) #20
  unreachable
}